; Function Attrs: mustprogress uwtable
define void @_ZN5Ipopt11DenseVector13AddScalarImplEd(ptr nocapture noundef nonnull align 8 dereferenceable(248) %0, double noundef %1) unnamed_addr #0 align 2 {
  %3 = alloca double, align 8
  store double %1, ptr %3, align 8
  %4 = getelementptr inbounds i8, ptr %0, i64 233
  %5 = load i8, ptr %4, align 1
  %6 = and i8 %5, 1
  %.not = icmp eq i8 %6, 0
  br i1 %.not, label %11, label %7

7:                                                ; preds = %2
  %8 = getelementptr inbounds i8, ptr %0, i64 240
  %9 = load double, ptr %8, align 8
  %10 = fadd double %9, %1
  store double %10, ptr %8, align 8
  br label %18

11:                                               ; preds = %2
  %12 = getelementptr inbounds i8, ptr %0, i64 56
  %13 = load ptr, ptr %12, align 8
  %14 = getelementptr inbounds i8, ptr %13, i64 12
  %15 = load i32, ptr %14, align 4
  %16 = getelementptr inbounds i8, ptr %0, i64 216
  %17 = load ptr, ptr %16, align 8
  call void @_ZN5Ipopt10IpBlasAxpyEidPKdiPdi(i32 noundef %15, double noundef 1.000000e+00, ptr noundef nonnull %3, i32 noundef 0, ptr noundef %17, i32 noundef 1)
  br label %18

18:                                               ; preds = %11, %7
  ret void
}